; Function Attrs: mustprogress nounwind null_pointer_is_valid sspstrong uwtable
define void @_ZN20AStringListListModelD2Ev(ptr noundef align 8 dereferenceable_or_null(64) initializes((0, 8)) %0) unnamed_addr #2 align 2 personality ptr @__gxx_personality_v0 {
  store ptr getelementptr inbounds nuw inrange(-16, 408) (i8, ptr @_ZTV20AStringListListModel, i64 16), ptr %0, align 8
  %2 = getelementptr inbounds nuw i8, ptr %0, i64 16
  invoke void @_ZN5QListIS_I7QStringEE5clearEv(ptr noundef nonnull align 8 dereferenceable_or_null(24) %2)
          to label %3 unwind label %19

3:                                                ; preds = %1
  %4 = getelementptr inbounds nuw i8, ptr %0, i64 40
  %5 = load ptr, ptr %4, align 8
  %.not.i.i.i = icmp eq ptr %5, null
  br i1 %.not.i.i.i, label %_ZN5QListI7QStringED2Ev.exit, label %_ZN17QArrayDataPointerI7QStringE5derefEv.exit.i.i

_ZN17QArrayDataPointerI7QStringE5derefEv.exit.i.i: ; preds = %3
  %6 = atomicrmw sub ptr %5, i32 1 seq_cst, align 4
  %.not.i.i = icmp eq i32 %6, 1
  br i1 %.not.i.i, label %7, label %_ZN5QListI7QStringED2Ev.exit

7:                                                ; preds = %_ZN17QArrayDataPointerI7QStringE5derefEv.exit.i.i
  %8 = getelementptr inbounds nuw i8, ptr %0, i64 48
  %9 = load ptr, ptr %8, align 8
  %10 = getelementptr inbounds nuw i8, ptr %0, i64 56
  %11 = load i64, ptr %10, align 8
  %12 = getelementptr %class.QString, ptr %9, i64 %11
  %.idx.i.i.i = mul i64 %11, 24
  %.not4.i.i.i.i.i.i = icmp eq i64 %.idx.i.i.i, 0
  br i1 %.not4.i.i.i.i.i.i, label %_ZN9QtPrivate16QGenericArrayOpsI7QStringE10destroyAllEv.exit.i.i, label %.lr.ph.i.i.i.i.i.i

.lr.ph.i.i.i.i.i.i:                               ; preds = %7, %_ZSt8_DestroyI7QStringEvPT_.exit.i.i.i.i.i.i
  %.05.i.i.i.i.i.i = phi ptr [ %17, %_ZSt8_DestroyI7QStringEvPT_.exit.i.i.i.i.i.i ], [ %9, %7 ]
  %13 = load ptr, ptr %.05.i.i.i.i.i.i, align 8
  %.not.i.i.i.i.i.i.i.i.i.i = icmp eq ptr %13, null
  br i1 %.not.i.i.i.i.i.i.i.i.i.i, label %_ZSt8_DestroyI7QStringEvPT_.exit.i.i.i.i.i.i, label %_ZN17QArrayDataPointerIDsE5derefEv.exit.i.i.i.i.i.i.i.i.i

_ZN17QArrayDataPointerIDsE5derefEv.exit.i.i.i.i.i.i.i.i.i: ; preds = %.lr.ph.i.i.i.i.i.i
  %14 = atomicrmw sub ptr %13, i32 1 seq_cst, align 4
  %.not.i.i.i.i.i.i.i.i.i = icmp eq i32 %14, 1
  br i1 %.not.i.i.i.i.i.i.i.i.i, label %15, label %_ZSt8_DestroyI7QStringEvPT_.exit.i.i.i.i.i.i

15:                                               ; preds = %_ZN17QArrayDataPointerIDsE5derefEv.exit.i.i.i.i.i.i.i.i.i
  %16 = load ptr, ptr %.05.i.i.i.i.i.i, align 8
  tail call void @_ZN10QArrayData10deallocateEPS_xx(ptr noundef %16, i64 noundef 2, i64 noundef 8) #24
  br label %_ZSt8_DestroyI7QStringEvPT_.exit.i.i.i.i.i.i

_ZSt8_DestroyI7QStringEvPT_.exit.i.i.i.i.i.i:     ; preds = %15, %_ZN17QArrayDataPointerIDsE5derefEv.exit.i.i.i.i.i.i.i.i.i, %.lr.ph.i.i.i.i.i.i
  %17 = getelementptr i8, ptr %.05.i.i.i.i.i.i, i64 24
  %.not.i.i.i.i.i.i = icmp eq ptr %17, %12
  br i1 %.not.i.i.i.i.i.i, label %_ZN9QtPrivate16QGenericArrayOpsI7QStringE10destroyAllEv.exit.i.i, label %.lr.ph.i.i.i.i.i.i, !llvm.loop !6

_ZN9QtPrivate16QGenericArrayOpsI7QStringE10destroyAllEv.exit.i.i: ; preds = %_ZSt8_DestroyI7QStringEvPT_.exit.i.i.i.i.i.i, %7
  %18 = load ptr, ptr %4, align 8
  tail call void @_ZN10QArrayData10deallocateEPS_xx(ptr noundef %18, i64 noundef 24, i64 noundef 8) #24
  br label %_ZN5QListI7QStringED2Ev.exit

_ZN5QListI7QStringED2Ev.exit:                     ; preds = %3, %_ZN17QArrayDataPointerI7QStringE5derefEv.exit.i.i, %_ZN9QtPrivate16QGenericArrayOpsI7QStringE10destroyAllEv.exit.i.i
  tail call void @_ZN17QArrayDataPointerI5QListI7QStringEED2Ev(ptr noundef nonnull align 8 dereferenceable_or_null(24) %2) #24
  tail call void @_ZN19QAbstractTableModelD2Ev(ptr noundef align 8 dereferenceable_or_null(16) %0) #24
  ret void

19:                                               ; preds = %1
  %20 = landingpad { ptr, i32 }
          catch ptr null
  %21 = extractvalue { ptr, i32 } %20, 0
  tail call void @__clang_call_terminate(ptr %21) #25
  unreachable
}